	.arch armv7-a
	.eabi_attribute 28, 1	@ Tag_ABI_VFP_args
	.eabi_attribute 20, 1	@ Tag_ABI_FP_denormal
	.eabi_attribute 21, 1	@ Tag_ABI_FP_exceptions
	.eabi_attribute 23, 3	@ Tag_ABI_FP_number_model
	.eabi_attribute 24, 1	@ Tag_ABI_align8_needed
	.eabi_attribute 25, 1	@ Tag_ABI_align8_preserved
	.eabi_attribute 26, 2	@ Tag_ABI_enum_size
	.eabi_attribute 30, 2	@ Tag_ABI_optimization_goals
	.eabi_attribute 34, 1	@ Tag_CPU_unaligned_access
	.eabi_attribute 18, 4	@ Tag_ABI_PCS_wchar_t
	.file	"loeffler_optimized.c"
@ GNU C11 (GCC) version 8.2.1 20180801 (Red Hat 8.2.1-2) (armv7hl-redhat-linux-gnueabi)
@	compiled by GNU C version 8.2.1 20180801 (Red Hat 8.2.1-2), GMP version 6.1.2, MPFR version 3.1.6-p2, MPC version 1.1.0, isl version none
@ GGC heuristics: --param ggc-min-expand=98 --param ggc-min-heapsize=127659
@ options passed:  -fpreprocessed CMakeFiles/dct.dir/loeffler_optimized.c.i
@ -mfpu=neon-vfpv4 -mfloat-abi=hard -mtune=generic-armv7-a
@ -mabi=aapcs-linux -mtls-dialect=gnu -marm -march=armv7-a+neon-vfpv4
@ -auxbase-strip CMakeFiles/dct.dir/loeffler_optimized.c.o -g -O3
@ -std=gnu11 -fverbose-asm
@ options enabled:  -faggressive-loop-optimizations -falign-jumps
@ -falign-labels -falign-loops -fauto-inc-dec -fbranch-count-reg
@ -fcaller-saves -fchkp-check-incomplete-type -fchkp-check-read
@ -fchkp-check-write -fchkp-instrument-calls -fchkp-narrow-bounds
@ -fchkp-optimize -fchkp-store-bounds -fchkp-use-static-bounds
@ -fchkp-use-static-const-bounds -fchkp-use-wrappers -fcode-hoisting
@ -fcombine-stack-adjustments -fcommon -fcompare-elim -fcprop-registers
@ -fcrossjumping -fcse-follow-jumps -fdefer-pop
@ -fdelete-null-pointer-checks -fdevirtualize -fdevirtualize-speculatively
@ -fdwarf2-cfi-asm -fearly-inlining -feliminate-unused-debug-types
@ -fexpensive-optimizations -fforward-propagate -ffp-int-builtin-inexact
@ -ffunction-cse -fgcse -fgcse-after-reload -fgcse-lm -fgnu-runtime
@ -fgnu-unique -fguess-branch-probability -fhoist-adjacent-loads -fident
@ -fif-conversion -fif-conversion2 -findirect-inlining -finline
@ -finline-atomics -finline-functions -finline-functions-called-once
@ -finline-small-functions -fipa-bit-cp -fipa-cp -fipa-cp-clone -fipa-icf
@ -fipa-icf-functions -fipa-icf-variables -fipa-profile -fipa-pure-const
@ -fipa-ra -fipa-reference -fipa-sra -fipa-vrp -fira-hoist-pressure
@ -fira-share-save-slots -fira-share-spill-slots
@ -fisolate-erroneous-paths-dereference -fivopts -fkeep-static-consts
@ -fleading-underscore -flifetime-dse -floop-interchange
@ -floop-unroll-and-jam -flra-remat -flto-odr-type-merging -fmath-errno
@ -fmerge-constants -fmerge-debug-strings -fmove-loop-invariants
@ -fomit-frame-pointer -foptimize-sibling-calls -foptimize-strlen
@ -fpartial-inlining -fpeel-loops -fpeephole -fpeephole2 -fplt
@ -fpredictive-commoning -fprefetch-loop-arrays -freg-struct-return
@ -freorder-blocks -freorder-functions -frerun-cse-after-loop
@ -fsched-critical-path-heuristic -fsched-dep-count-heuristic
@ -fsched-group-heuristic -fsched-interblock -fsched-last-insn-heuristic
@ -fsched-pressure -fsched-rank-heuristic -fsched-spec
@ -fsched-spec-insn-heuristic -fsched-stalled-insns-dep -fschedule-insns
@ -fschedule-insns2 -fsection-anchors -fsemantic-interposition
@ -fshow-column -fshrink-wrap -fshrink-wrap-separate -fsigned-zeros
@ -fsplit-ivs-in-unroller -fsplit-loops -fsplit-paths -fsplit-wide-types
@ -fssa-backprop -fssa-phiopt -fstdarg-opt -fstore-merging
@ -fstrict-aliasing -fstrict-volatile-bitfields -fsync-libcalls
@ -fthread-jumps -ftoplevel-reorder -ftrapping-math -ftree-bit-ccp
@ -ftree-builtin-call-dce -ftree-ccp -ftree-ch -ftree-coalesce-vars
@ -ftree-copy-prop -ftree-cselim -ftree-dce -ftree-dominator-opts
@ -ftree-dse -ftree-forwprop -ftree-fre -ftree-loop-distribute-patterns
@ -ftree-loop-distribution -ftree-loop-if-convert -ftree-loop-im
@ -ftree-loop-ivcanon -ftree-loop-optimize -ftree-loop-vectorize
@ -ftree-parallelize-loops= -ftree-partial-pre -ftree-phiprop -ftree-pre
@ -ftree-pta -ftree-reassoc -ftree-scev-cprop -ftree-sink
@ -ftree-slp-vectorize -ftree-slsr -ftree-sra -ftree-switch-conversion
@ -ftree-tail-merge -ftree-ter -ftree-vrp -funit-at-a-time -funswitch-loops
@ -fvar-tracking -fvar-tracking-assignments -fverbose-asm
@ -fzero-initialized-in-bss -marm -mbe32 -mglibc -mlittle-endian
@ -mpic-data-is-text-relative -msched-prolog -munaligned-access
@ -mvectorize-with-neon-quad

	.text
.Ltext0:
	.cfi_sections	.debug_frame
	.align	2
	.global	loeffler_optimized
	.arch armv7-a
	.syntax unified
	.arm
	.fpu neon-vfpv4
	.type	loeffler_optimized, %function
loeffler_optimized:
.LVL0:
.LFB2007:
	.file 1 "/tmp/tmp.Ftjp5poh6g/DCT/loeffler_optimized.c"
	.loc 1 11 39 view -0
	.cfi_startproc
	@ args = 0, pretend = 0, frame = 40
	@ frame_needed = 0, uses_anonymous_args = 0
	.loc 1 13 5 view .LVU1
.LBB37:
.LBI37:
	.file 2 "/usr/lib/gcc/armv7hl-redhat-linux-gnueabi/8/include/arm_neon.h"
	.loc 2 10369 1 view .LVU2
.LBB38:
	.loc 2 10371 3 view .LVU3
@ /usr/lib/gcc/armv7hl-redhat-linux-gnueabi/8/include/arm_neon.h:10371:   return (int32x4_t)__builtin_neon_vld1v4si ((const __builtin_neon_si *) __a);
	.loc 2 10371 10 is_stmt 0 view .LVU4
	mov	r3, r0	@ tmp170, v
.LBE38:
.LBE37:
@ /tmp/tmp.Ftjp5poh6g/DCT/loeffler_optimized.c:11: void loeffler_optimized(int32_t v[8]) {
	.loc 1 11 39 view .LVU5
	push	{r4, r5, r6, r7, r8, r9, r10, fp, lr}	@
	.cfi_def_cfa_offset 36
	.cfi_offset 4, -36
	.cfi_offset 5, -32
	.cfi_offset 6, -28
	.cfi_offset 7, -24
	.cfi_offset 8, -20
	.cfi_offset 9, -16
	.cfi_offset 10, -12
	.cfi_offset 11, -8
	.cfi_offset 14, -4
.LBB40:
.LBB39:
@ /usr/lib/gcc/armv7hl-redhat-linux-gnueabi/8/include/arm_neon.h:10371:   return (int32x4_t)__builtin_neon_vld1v4si ((const __builtin_neon_si *) __a);
	.loc 2 10371 10 view .LVU6
	vld1.32	{d20-d21}, [r3]!	@ _83, MEM[(const int[4] *)v_33(D)]
.LVL1:
	.loc 2 10371 10 view .LVU7
.LBE39:
.LBE40:
	.loc 1 14 5 is_stmt 1 view .LVU8
.LBB41:
.LBI41:
	.loc 2 10369 1 view .LVU9
.LBB42:
	.loc 2 10371 3 view .LVU10
@ /usr/lib/gcc/armv7hl-redhat-linux-gnueabi/8/include/arm_neon.h:10371:   return (int32x4_t)__builtin_neon_vld1v4si ((const __builtin_neon_si *) __a);
	.loc 2 10371 10 is_stmt 0 view .LVU11
	vld1.32	{d16-d17}, [r3]	@ _82, MEM[(const int[4] *)_1]
.LVL2:
	.loc 2 10371 10 view .LVU12
.LBE42:
.LBE41:
	.loc 1 15 5 is_stmt 1 view .LVU13
.LBB43:
.LBI43:
	.loc 2 8971 1 view .LVU14
.LBB44:
	.loc 2 8973 3 view .LVU15
@ /usr/lib/gcc/armv7hl-redhat-linux-gnueabi/8/include/arm_neon.h:8973:   return (int32x4_t) __builtin_shuffle (__a, (uint32x4_t) { 1, 0, 3, 2 });
	.loc 2 8973 10 is_stmt 0 view .LVU16
	vrev64.32	q8, q8	@ _81, _82
.LVL3:
	.loc 2 8973 10 view .LVU17
.LBE44:
.LBE43:
	.loc 1 16 5 is_stmt 1 view .LVU18
.LBB45:
.LBI45:
	.loc 2 8831 1 view .LVU19
.LBB46:
	.loc 2 8833 3 view .LVU20
@ /usr/lib/gcc/armv7hl-redhat-linux-gnueabi/8/include/arm_neon.h:8833:   return (int32x4_t)__builtin_neon_vextv4si (__a, __b, __c);
	.loc 2 8833 10 is_stmt 0 view .LVU21
	vext.32	q8, q8, q8, #2	@ _80, _81, _81,
.LVL4:
	.loc 2 8833 10 view .LVU22
.LBE46:
.LBE45:
	.loc 1 18 5 is_stmt 1 view .LVU23
.LBB47:
.LBI47:
	.loc 2 596 1 view .LVU24
.LBB48:
	.loc 2 598 3 view .LVU25
.LBE48:
.LBE47:
.LBB50:
.LBB51:
@ /usr/lib/gcc/armv7hl-redhat-linux-gnueabi/8/include/arm_neon.h:1929:   return __a - __b;
	.loc 2 1929 14 is_stmt 0 view .LVU26
	vsub.i32	q9, q10, q8	@ _78, _83, _80
.LBE51:
.LBE50:
.LBB53:
.LBB54:
@ /usr/lib/gcc/armv7hl-redhat-linux-gnueabi/8/include/arm_neon.h:8973:   return (int32x4_t) __builtin_shuffle (__a, (uint32x4_t) { 1, 0, 3, 2 });
	.loc 2 8973 10 view .LVU27
	vrev64.32	q9, q9	@ _77, _78
.LBE54:
.LBE53:
.LBB56:
.LBB57:
@ /usr/lib/gcc/armv7hl-redhat-linux-gnueabi/8/include/arm_neon.h:8833:   return (int32x4_t)__builtin_neon_vextv4si (__a, __b, __c);
	.loc 2 8833 10 view .LVU28
	vext.32	q9, q9, q9, #2	@ _76, _77, _77,
.LBE57:
.LBE56:
.LBB59:
@ /tmp/tmp.Ftjp5poh6g/DCT/loeffler_optimized.c:45:     ROTATOR(s2_5, s2_6, C1, S1); // pair (5,6)
	.loc 1 45 84 view .LVU29
	movw	r10, #12785	@ tmp182,
.LBE59:
.LBB60:
.LBB61:
@ /usr/lib/gcc/armv7hl-redhat-linux-gnueabi/8/include/arm_neon.h:6249:   return (int32_t)__builtin_neon_vget_lanev4si (__a, __b);
	.loc 2 6249 10 view .LVU30
	vmov.32	r7, d19[0]	@ _36,,
.LBE61:
.LBE60:
.LBB63:
.LBB64:
	vmov.32	r9, d18[1]	@ _35,,
.LBE64:
.LBE63:
.LBB66:
@ /tmp/tmp.Ftjp5poh6g/DCT/loeffler_optimized.c:45:     ROTATOR(s2_5, s2_6, C1, S1); // pair (5,6)
	.loc 1 45 79 view .LVU31
	movw	r6, #64277	@ tmp184,
@ /tmp/tmp.Ftjp5poh6g/DCT/loeffler_optimized.c:45:     ROTATOR(s2_5, s2_6, C1, S1); // pair (5,6)
	.loc 1 45 135 view .LVU32
	movw	r5, #52751	@ tmp189,
.LBE66:
.LBB67:
.LBB68:
@ /usr/lib/gcc/armv7hl-redhat-linux-gnueabi/8/include/arm_neon.h:6249:   return (int32_t)__builtin_neon_vget_lanev4si (__a, __b);
	.loc 2 6249 10 view .LVU33
	vmov.32	r4, d19[1]	@ _37,,
.LBE68:
.LBE67:
.LBB70:
@ /tmp/tmp.Ftjp5poh6g/DCT/loeffler_optimized.c:44:     ROTATOR(s2_4, s2_7, C3, S3); // pair (4,7)
	.loc 1 44 79 view .LVU34
	movw	r1, #54491	@ tmp174,
@ /tmp/tmp.Ftjp5poh6g/DCT/loeffler_optimized.c:44:     ROTATOR(s2_4, s2_7, C3, S3); // pair (4,7)
	.loc 1 44 84 view .LVU35
	movw	r8, #36410	@ tmp172,
@ /tmp/tmp.Ftjp5poh6g/DCT/loeffler_optimized.c:44:     ROTATOR(s2_4, s2_7, C3, S3); // pair (4,7)
	.loc 1 44 135 view .LVU36
	movw	r2, #29126	@ tmp179,
.LBE70:
.LBB71:
.LBB49:
@ /usr/lib/gcc/armv7hl-redhat-linux-gnueabi/8/include/arm_neon.h:598:   return __a + __b;
	.loc 2 598 14 view .LVU37
	vadd.i32	q8, q8, q10	@ _79, _80, _83
.LVL5:
	.loc 2 598 14 view .LVU38
.LBE49:
.LBE71:
	.loc 1 19 5 is_stmt 1 view .LVU39
.LBB72:
.LBI50:
	.loc 2 1927 1 view .LVU40
.LBB52:
	.loc 2 1929 3 view .LVU41
	.loc 2 1929 3 is_stmt 0 view .LVU42
.LBE52:
.LBE72:
	.loc 1 22 5 is_stmt 1 view .LVU43
.LBB73:
.LBI53:
	.loc 2 8971 1 view .LVU44
.LBB55:
	.loc 2 8973 3 view .LVU45
	.loc 2 8973 3 is_stmt 0 view .LVU46
.LBE55:
.LBE73:
	.loc 1 23 5 is_stmt 1 view .LVU47
.LBB74:
.LBI56:
	.loc 2 8831 1 view .LVU48
.LBB58:
	.loc 2 8833 3 view .LVU49
	.loc 2 8833 3 is_stmt 0 view .LVU50
.LBE58:
.LBE74:
	.loc 1 25 5 is_stmt 1 view .LVU51
.LBB75:
.LBI75:
	.loc 2 6247 1 view .LVU52
.LBB76:
	.loc 2 6249 3 view .LVU53
	.loc 2 6249 3 is_stmt 0 view .LVU54
.LBE76:
.LBE75:
.LBB79:
.LBB80:
@ /usr/lib/gcc/armv7hl-redhat-linux-gnueabi/8/include/arm_neon.h:6249:   return (int32_t)__builtin_neon_vget_lanev4si (__a, __b);
	.loc 2 6249 10 view .LVU55
	vmov.32	r3, d18[0]	@ _34,,
.LVL6:
	.loc 2 6249 10 view .LVU56
.LBE80:
.LBE79:
.LBB82:
@ /tmp/tmp.Ftjp5poh6g/DCT/loeffler_optimized.c:45:     ROTATOR(s2_5, s2_6, C1, S1); // pair (5,6)
	.loc 1 45 84 view .LVU57
	smull	r10, fp, r7, r10	@ tmp181, _36, tmp182
@ /tmp/tmp.Ftjp5poh6g/DCT/loeffler_optimized.c:45:     ROTATOR(s2_5, s2_6, C1, S1); // pair (5,6)
	.loc 1 45 79 view .LVU58
	smlal	r10, fp, r6, r9	@ tmp183, tmp184, _35
@ /tmp/tmp.Ftjp5poh6g/DCT/loeffler_optimized.c:45:     ROTATOR(s2_5, s2_6, C1, S1); // pair (5,6)
	.loc 1 45 140 view .LVU59
	smull	r6, r7, r7, r6	@ tmp186, _36, tmp184
@ /tmp/tmp.Ftjp5poh6g/DCT/loeffler_optimized.c:45:     ROTATOR(s2_5, s2_6, C1, S1); // pair (5,6)
	.loc 1 45 135 view .LVU60
	movt	r5, 65535	@ tmp189,
	smlal	r6, r7, r5, r9	@ tmp188, tmp189, _35
.LBE82:
.LBB83:
@ /tmp/tmp.Ftjp5poh6g/DCT/loeffler_optimized.c:44:     ROTATOR(s2_4, s2_7, C3, S3); // pair (4,7)
	.loc 1 44 84 view .LVU61
	smull	r8, r9, r4, r8	@ tmp171, _37, tmp172
@ /tmp/tmp.Ftjp5poh6g/DCT/loeffler_optimized.c:44:     ROTATOR(s2_4, s2_7, C3, S3); // pair (4,7)
	.loc 1 44 140 view .LVU62
	smull	r4, r5, r4, r1	@ tmp176, _37, tmp174
.LBE83:
.LBB84:
@ /tmp/tmp.Ftjp5poh6g/DCT/loeffler_optimized.c:45:     ROTATOR(s2_5, s2_6, C1, S1); // pair (5,6)
	.loc 1 45 150 view .LVU63
	lsr	r6, r6, #16	@ tmp188, tmp188,
.LBE84:
@ /tmp/tmp.Ftjp5poh6g/DCT/loeffler_optimized.c:11: void loeffler_optimized(int32_t v[8]) {
	.loc 1 11 39 view .LVU64
	sub	sp, sp, #44	@,,
	.cfi_def_cfa_offset 80
.LVL7:
	.loc 1 26 5 is_stmt 1 view .LVU65
.LBB85:
.LBI85:
	.loc 2 6247 1 view .LVU66
.LBB86:
	.loc 2 6249 3 view .LVU67
.LBE86:
.LBE85:
.LBB88:
@ /tmp/tmp.Ftjp5poh6g/DCT/loeffler_optimized.c:45:     ROTATOR(s2_5, s2_6, C1, S1); // pair (5,6)
	.loc 1 45 150 is_stmt 0 view .LVU68
	orr	r6, r6, r7, lsl #16	@ tmp188, tmp188,,
.LBE88:
.LBB89:
@ /tmp/tmp.Ftjp5poh6g/DCT/loeffler_optimized.c:44:     ROTATOR(s2_4, s2_7, C3, S3); // pair (4,7)
	.loc 1 44 135 view .LVU69
	movt	r2, 65535	@ tmp179,
.LBE89:
.LBB90:
@ /tmp/tmp.Ftjp5poh6g/DCT/loeffler_optimized.c:45:     ROTATOR(s2_5, s2_6, C1, S1); // pair (5,6)
	.loc 1 45 150 view .LVU70
	asr	r7, r7, #16	@,,
.LBE90:
.LBB91:
@ /tmp/tmp.Ftjp5poh6g/DCT/loeffler_optimized.c:44:     ROTATOR(s2_4, s2_7, C3, S3); // pair (4,7)
	.loc 1 44 135 view .LVU71
	smlal	r4, r5, r2, r3	@ tmp178, tmp179, _34
.LBE91:
.LBB92:
@ /tmp/tmp.Ftjp5poh6g/DCT/loeffler_optimized.c:45:     ROTATOR(s2_5, s2_6, C1, S1); // pair (5,6)
	.loc 1 45 150 view .LVU72
	strd	r6, [sp, #32]	@ tmp188,,
.LBE92:
.LBB93:
.LBB94:
@ /usr/lib/gcc/armv7hl-redhat-linux-gnueabi/8/include/arm_neon.h:6249:   return (int32_t)__builtin_neon_vget_lanev4si (__a, __b);
	.loc 2 6249 10 view .LVU73
	vmov.32	lr, d17[1]	@ _72,,
.LBE94:
.LBE93:
.LBB96:
@ /tmp/tmp.Ftjp5poh6g/DCT/loeffler_optimized.c:52:     ROTATOR(s3_2, s3_3, R2C6, R2S6);
	.loc 1 52 84 view .LVU74
	movw	r6, #20091	@ tmp194,
.LBE96:
.LBB97:
.LBB77:
@ /usr/lib/gcc/armv7hl-redhat-linux-gnueabi/8/include/arm_neon.h:6249:   return (int32_t)__builtin_neon_vget_lanev4si (__a, __b);
	.loc 2 6249 10 view .LVU75
	add	ip, sp, #4	@ tmp265,,
.LVL8:
	.loc 2 6249 10 view .LVU76
.LBE77:
.LBE97:
.LBB98:
@ /tmp/tmp.Ftjp5poh6g/DCT/loeffler_optimized.c:44:     ROTATOR(s2_4, s2_7, C3, S3); // pair (4,7)
	.loc 1 44 79 view .LVU77
	smlal	r8, r9, r1, r3	@ tmp173, tmp174, _34
.LBE98:
.LBB99:
.LBB78:
@ /usr/lib/gcc/armv7hl-redhat-linux-gnueabi/8/include/arm_neon.h:6249:   return (int32_t)__builtin_neon_vget_lanev4si (__a, __b);
	.loc 2 6249 10 view .LVU78
	vst1.32	{d16[0]}, [ip]	@,, %sfp
.LVL9:
	.loc 2 6249 10 view .LVU79
.LBE78:
.LBE99:
.LBB100:
@ /tmp/tmp.Ftjp5poh6g/DCT/loeffler_optimized.c:52:     ROTATOR(s3_2, s3_3, R2C6, R2S6);
	.loc 1 52 79 view .LVU80
	movw	ip, #35468	@ tmp196,
.LBE100:
.LBB101:
.LBB87:
@ /usr/lib/gcc/armv7hl-redhat-linux-gnueabi/8/include/arm_neon.h:6249:   return (int32_t)__builtin_neon_vget_lanev4si (__a, __b);
	.loc 2 6249 10 view .LVU81
	vmov.32	r2, d16[1]	@ _74,,
.LVL10:
	.loc 2 6249 10 view .LVU82
.LBE87:
.LBE101:
	.loc 1 27 5 is_stmt 1 view .LVU83
.LBB102:
.LBI102:
	.loc 2 6247 1 view .LVU84
.LBB103:
	.loc 2 6249 3 view .LVU85
@ /usr/lib/gcc/armv7hl-redhat-linux-gnueabi/8/include/arm_neon.h:6249:   return (int32_t)__builtin_neon_vget_lanev4si (__a, __b);
	.loc 2 6249 10 is_stmt 0 view .LVU86
	vmov.32	r3, d17[0]	@ _73,,
.LVL11:
	.loc 2 6249 10 view .LVU87
.LBE103:
.LBE102:
	.loc 1 28 5 is_stmt 1 view .LVU88
.LBB104:
.LBI93:
	.loc 2 6247 1 view .LVU89
.LBB95:
	.loc 2 6249 3 view .LVU90
	.loc 2 6249 3 is_stmt 0 view .LVU91
.LBE95:
.LBE104:
	.loc 1 29 5 is_stmt 1 view .LVU92
.LBB105:
.LBI79:
	.loc 2 6247 1 view .LVU93
.LBB81:
	.loc 2 6249 3 view .LVU94
	.loc 2 6249 3 is_stmt 0 view .LVU95
.LBE81:
.LBE105:
	.loc 1 30 5 is_stmt 1 view .LVU96
.LBB106:
.LBI63:
	.loc 2 6247 1 view .LVU97
.LBB65:
	.loc 2 6249 3 view .LVU98
	.loc 2 6249 3 is_stmt 0 view .LVU99
.LBE65:
.LBE106:
	.loc 1 31 5 is_stmt 1 view .LVU100
.LBB107:
.LBI60:
	.loc 2 6247 1 view .LVU101
.LBB62:
	.loc 2 6249 3 view .LVU102
	.loc 2 6249 3 is_stmt 0 view .LVU103
.LBE62:
.LBE107:
	.loc 1 32 5 is_stmt 1 view .LVU104
.LBB108:
.LBI67:
	.loc 2 6247 1 view .LVU105
.LBB69:
	.loc 2 6249 3 view .LVU106
	.loc 2 6249 3 is_stmt 0 view .LVU107
.LBE69:
.LBE108:
	.loc 1 35 5 is_stmt 1 view .LVU108
.LBB109:
@ /tmp/tmp.Ftjp5poh6g/DCT/loeffler_optimized.c:44:     ROTATOR(s2_4, s2_7, C3, S3); // pair (4,7)
	.loc 1 44 150 is_stmt 0 view .LVU109
	lsr	r4, r4, #16	@ tmp178, tmp178,
	orr	r4, r4, r5, lsl #16	@ tmp178, tmp178,,
	asr	r5, r5, #16	@,,
	strd	r4, [sp, #16]	@ tmp178,,
.LBE109:
.LBB110:
@ /tmp/tmp.Ftjp5poh6g/DCT/loeffler_optimized.c:52:     ROTATOR(s3_2, s3_3, R2C6, R2S6);
	.loc 1 52 135 view .LVU110
	movw	r4, #45445	@ tmp213,
.LBE110:
.LBB111:
@ /tmp/tmp.Ftjp5poh6g/DCT/loeffler_optimized.c:44:     ROTATOR(s2_4, s2_7, C3, S3); // pair (4,7)
	.loc 1 44 94 view .LVU111
	lsr	r8, r8, #16	@ tmp173, tmp173,
	orr	r8, r8, r9, lsl #16	@ tmp173, tmp173,,
	asr	r9, r9, #16	@,,
	strd	r8, [sp, #8]	@ tmp173,,
.LBE111:
@ /tmp/tmp.Ftjp5poh6g/DCT/loeffler_optimized.c:61:     int32_t s4_5 = (int32_t) (((int64_t) s3_5 * R2) >> Q_SCALE);
	.loc 1 61 47 view .LVU112
	movw	r8, #27146	@ tmp201,
@ /tmp/tmp.Ftjp5poh6g/DCT/loeffler_optimized.c:38:     int32_t s2_3 = s1_0 - s1_3;
	.loc 1 38 13 view .LVU113
	ldr	r1, [sp, #4]	@ _75, %sfp
.LBB112:
@ /tmp/tmp.Ftjp5poh6g/DCT/loeffler_optimized.c:52:     ROTATOR(s3_2, s3_3, R2C6, R2S6);
	.loc 1 52 84 view .LVU114
	movt	r6, 1	@ tmp194,
.LBE112:
@ /tmp/tmp.Ftjp5poh6g/DCT/loeffler_optimized.c:38:     int32_t s2_3 = s1_0 - s1_3;
	.loc 1 38 13 view .LVU115
	sub	r1, r1, lr	@ s2_3, _75, _72
.LBB113:
@ /tmp/tmp.Ftjp5poh6g/DCT/loeffler_optimized.c:52:     ROTATOR(s3_2, s3_3, R2C6, R2S6);
	.loc 1 52 84 view .LVU116
	smull	r6, r7, r1, r6	@ tmp193, s2_3, tmp194
.LBE113:
.LBB114:
@ /tmp/tmp.Ftjp5poh6g/DCT/loeffler_optimized.c:45:     ROTATOR(s2_5, s2_6, C1, S1); // pair (5,6)
	.loc 1 45 94 view .LVU117
	lsr	r10, r10, #16	@ tmp183, tmp183,
	orr	r10, r10, fp, lsl #16	@ tmp183, tmp183,,
	asr	fp, fp, #16	@,,
	strd	r10, [sp, #24]	@ tmp183,,
.LBE114:
.LBB115:
@ /tmp/tmp.Ftjp5poh6g/DCT/loeffler_optimized.c:52:     ROTATOR(s3_2, s3_3, R2C6, R2S6);
	.loc 1 52 140 view .LVU118
	smull	r10, fp, r1, ip	@ tmp210, s2_3, tmp196
.LBE115:
@ /tmp/tmp.Ftjp5poh6g/DCT/loeffler_optimized.c:37:     int32_t s2_2 = s1_1 - s1_2;
	.loc 1 37 13 view .LVU119
	sub	r1, r2, r3	@ s2_2, _74, _73
.LBB116:
@ /tmp/tmp.Ftjp5poh6g/DCT/loeffler_optimized.c:52:     ROTATOR(s3_2, s3_3, R2C6, R2S6);
	.loc 1 52 79 view .LVU120
	smlal	r6, r7, ip, r1	@ tmp195, tmp196, s2_2
.LBE116:
@ /tmp/tmp.Ftjp5poh6g/DCT/loeffler_optimized.c:56:     int32_t s3_6 = s2_4 - s2_6;
	.loc 1 56 13 view .LVU121
	ldr	r5, [sp, #32]	@ tmp247, %sfp
	ldr	ip, [sp, #8]	@ tmp246, %sfp
.LBB117:
@ /tmp/tmp.Ftjp5poh6g/DCT/loeffler_optimized.c:52:     ROTATOR(s3_2, s3_3, R2C6, R2S6);
	.loc 1 52 135 view .LVU122
	movt	r4, 65534	@ tmp213,
	smlal	r10, fp, r4, r1	@ tmp212, tmp213, s2_2
.LBE117:
@ /tmp/tmp.Ftjp5poh6g/DCT/loeffler_optimized.c:56:     int32_t s3_6 = s2_4 - s2_6;
	.loc 1 56 13 view .LVU123
	sub	r1, ip, r5	@ s3_6, tmp246, tmp247
@ /tmp/tmp.Ftjp5poh6g/DCT/loeffler_optimized.c:55:     int32_t s3_5 = s2_7 - s2_5;
	.loc 1 55 13 view .LVU124
	ldr	ip, [sp, #16]	@ tmp248, %sfp
	ldr	r5, [sp, #24]	@ tmp249, %sfp
@ /tmp/tmp.Ftjp5poh6g/DCT/loeffler_optimized.c:61:     int32_t s4_5 = (int32_t) (((int64_t) s3_5 * R2) >> Q_SCALE);
	.loc 1 61 47 view .LVU125
	movt	r8, 1	@ tmp201,
@ /tmp/tmp.Ftjp5poh6g/DCT/loeffler_optimized.c:55:     int32_t s3_5 = s2_7 - s2_5;
	.loc 1 55 13 view .LVU126
	sub	r4, ip, r5	@ s3_5, tmp248, tmp249
@ /tmp/tmp.Ftjp5poh6g/DCT/loeffler_optimized.c:61:     int32_t s4_5 = (int32_t) (((int64_t) s3_5 * R2) >> Q_SCALE);
	.loc 1 61 47 view .LVU127
	smull	r4, r5, r4, r8	@ tmp200, s3_5, tmp201
@ /tmp/tmp.Ftjp5poh6g/DCT/loeffler_optimized.c:62:     int32_t s4_6 = (int32_t) (((int64_t) s3_6 * R2) >> Q_SCALE);
	.loc 1 62 47 view .LVU128
	smull	r8, r9, r1, r8	@ tmp206, s3_6, tmp201
@ /tmp/tmp.Ftjp5poh6g/DCT/loeffler_optimized.c:35:     int32_t s2_0 = s1_0 + s1_3;
	.loc 1 35 13 view .LVU129
	ldr	r1, [sp, #4]	@ _75, %sfp
@ /tmp/tmp.Ftjp5poh6g/DCT/loeffler_optimized.c:36:     int32_t s2_1 = s1_1 + s1_2;
	.loc 1 36 13 view .LVU130
	add	r3, r3, r2	@ s2_1, _73, _74
.LVL12:
@ /tmp/tmp.Ftjp5poh6g/DCT/loeffler_optimized.c:35:     int32_t s2_0 = s1_0 + s1_3;
	.loc 1 35 13 view .LVU131
	add	lr, lr, r1	@ s2_0, _72, _75
.LVL13:
	.loc 1 36 5 is_stmt 1 view .LVU132
	.loc 1 37 5 view .LVU133
	.loc 1 38 5 view .LVU134
	.loc 1 39 5 view .LVU135
	.loc 1 40 5 view .LVU136
	.loc 1 41 5 view .LVU137
	.loc 1 42 5 view .LVU138
	.loc 1 44 5 view .LVU139
.LBB118:
	.loc 1 44 10 view .LVU140
	.loc 1 44 46 view .LVU141
	.loc 1 44 102 view .LVU142
	.loc 1 44 102 is_stmt 0 view .LVU143
.LBE118:
	.loc 1 45 5 is_stmt 1 view .LVU144
.LBB119:
	.loc 1 45 10 view .LVU145
	.loc 1 45 46 view .LVU146
	.loc 1 45 102 view .LVU147
	.loc 1 45 102 is_stmt 0 view .LVU148
.LBE119:
	.loc 1 48 5 is_stmt 1 view .LVU149
	.loc 1 49 5 view .LVU150
	.loc 1 50 5 view .LVU151
	.loc 1 51 5 view .LVU152
	.loc 1 52 5 view .LVU153
.LBB120:
	.loc 1 52 10 view .LVU154
	.loc 1 52 46 view .LVU155
	.loc 1 52 102 view .LVU156
	.loc 1 52 102 is_stmt 0 view .LVU157
.LBE120:
	.loc 1 54 5 is_stmt 1 view .LVU158
@ /tmp/tmp.Ftjp5poh6g/DCT/loeffler_optimized.c:54:     int32_t s3_4 = s2_4 + s2_6;
	.loc 1 54 13 is_stmt 0 view .LVU159
	ldr	r2, [sp, #32]	@ tmp251, %sfp
.LVL14:
	.loc 1 54 13 view .LVU160
	ldr	r1, [sp, #8]	@ tmp252, %sfp
.LVL15:
.LBB121:
@ /tmp/tmp.Ftjp5poh6g/DCT/loeffler_optimized.c:52:     ROTATOR(s3_2, s3_3, R2C6, R2S6);
	.loc 1 52 150 view .LVU161
	lsr	r10, r10, #16	@ tmp214, tmp212,
.LBE121:
@ /tmp/tmp.Ftjp5poh6g/DCT/loeffler_optimized.c:54:     int32_t s3_4 = s2_4 + s2_6;
	.loc 1 54 13 view .LVU162
	add	ip, r2, r1	@ s3_4, tmp251, tmp252
.LVL16:
	.loc 1 55 5 is_stmt 1 view .LVU163
	.loc 1 56 5 view .LVU164
	.loc 1 57 5 view .LVU165
@ /tmp/tmp.Ftjp5poh6g/DCT/loeffler_optimized.c:57:     int32_t s3_7 = s2_7 + s2_5;
	.loc 1 57 13 is_stmt 0 view .LVU166
	ldr	r2, [sp, #24]	@ tmp253, %sfp
	ldr	r1, [sp, #16]	@ tmp254, %sfp
.LBB122:
@ /tmp/tmp.Ftjp5poh6g/DCT/loeffler_optimized.c:52:     ROTATOR(s3_2, s3_3, R2C6, R2S6);
	.loc 1 52 94 view .LVU167
	lsr	r6, r6, #16	@ tmp197, tmp195,
.LBE122:
@ /tmp/tmp.Ftjp5poh6g/DCT/loeffler_optimized.c:57:     int32_t s3_7 = s2_7 + s2_5;
	.loc 1 57 13 view .LVU168
	add	r1, r2, r1	@ s3_7, tmp253, tmp254
.LVL17:
	.loc 1 60 5 is_stmt 1 view .LVU169
	.loc 1 61 5 view .LVU170
	.loc 1 62 5 view .LVU171
	.loc 1 63 5 view .LVU172
	.loc 1 66 5 view .LVU173
@ /tmp/tmp.Ftjp5poh6g/DCT/loeffler_optimized.c:61:     int32_t s4_5 = (int32_t) (((int64_t) s3_5 * R2) >> Q_SCALE);
	.loc 1 61 56 is_stmt 0 view .LVU174
	lsr	r4, r4, #16	@ tmp202, tmp200,
@ /tmp/tmp.Ftjp5poh6g/DCT/loeffler_optimized.c:62:     int32_t s4_6 = (int32_t) (((int64_t) s3_6 * R2) >> Q_SCALE);
	.loc 1 62 56 view .LVU175
	lsr	r8, r8, #16	@ tmp208, tmp206,
@ /tmp/tmp.Ftjp5poh6g/DCT/loeffler_optimized.c:48:     int32_t s3_0 = s2_0 + s2_1;
	.loc 1 48 13 view .LVU176
	add	r2, lr, r3	@ s3_0, s2_0, s2_1
.LVL18:
.LBB123:
@ /tmp/tmp.Ftjp5poh6g/DCT/loeffler_optimized.c:52:     ROTATOR(s3_2, s3_3, R2C6, R2S6);
	.loc 1 52 150 view .LVU177
	orr	r10, r10, fp, lsl #16	@ tmp214, tmp214,,
.LBE123:
@ /tmp/tmp.Ftjp5poh6g/DCT/loeffler_optimized.c:49:     int32_t s3_1 = s2_0 - s2_1;
	.loc 1 49 13 view .LVU178
	sub	lr, lr, r3	@ s3_1, s2_0, s2_1
.LVL19:
.LBB124:
@ /tmp/tmp.Ftjp5poh6g/DCT/loeffler_optimized.c:52:     ROTATOR(s3_2, s3_3, R2C6, R2S6);
	.loc 1 52 94 view .LVU179
	orr	r6, r6, r7, lsl #16	@ tmp197, tmp197,,
.LBE124:
@ /tmp/tmp.Ftjp5poh6g/DCT/loeffler_optimized.c:63:     int32_t s4_7 = s3_7 + s3_4;
	.loc 1 63 13 view .LVU180
	add	r3, ip, r1	@ s4_7, s3_4, s3_7
.LVL20:
@ /tmp/tmp.Ftjp5poh6g/DCT/loeffler_optimized.c:61:     int32_t s4_5 = (int32_t) (((int64_t) s3_5 * R2) >> Q_SCALE);
	.loc 1 61 56 view .LVU181
	orr	r4, r4, r5, lsl #16	@ tmp202, tmp202,,
@ /tmp/tmp.Ftjp5poh6g/DCT/loeffler_optimized.c:62:     int32_t s4_6 = (int32_t) (((int64_t) s3_6 * R2) >> Q_SCALE);
	.loc 1 62 56 view .LVU182
	orr	r8, r8, r9, lsl #16	@ tmp208, tmp208,,
@ /tmp/tmp.Ftjp5poh6g/DCT/loeffler_optimized.c:60:     int32_t s4_4 = s3_7 - s3_4;
	.loc 1 60 13 view .LVU183
	sub	r1, r1, ip	@ s4_4, s3_7, s3_4
.LVL21:
@ /tmp/tmp.Ftjp5poh6g/DCT/loeffler_optimized.c:66:     v[0] = s3_0;
	.loc 1 66 10 view .LVU184
	str	r2, [r0]	@ s3_0, *v_33(D)
	.loc 1 67 5 is_stmt 1 view .LVU185
@ /tmp/tmp.Ftjp5poh6g/DCT/loeffler_optimized.c:70:     v[4] = s3_1;
	.loc 1 70 10 is_stmt 0 view .LVU186
	str	lr, [r0, #16]	@ s3_1, MEM[(int32_t *)v_33(D) + 16B]
.LVL22:
.LBB125:
@ /tmp/tmp.Ftjp5poh6g/DCT/loeffler_optimized.c:52:     ROTATOR(s3_2, s3_3, R2C6, R2S6);
	.loc 1 52 109 view .LVU187
	str	r10, [r0, #24]	@ tmp214, MEM[(int32_t *)v_33(D) + 24B]
.LBE125:
@ /tmp/tmp.Ftjp5poh6g/DCT/loeffler_optimized.c:67:     v[1] = s4_7;
	.loc 1 67 10 view .LVU188
	stmib	r0, {r3, r6}	@ v,,
	.loc 1 68 5 is_stmt 1 view .LVU189
	.loc 1 69 5 view .LVU190
@ /tmp/tmp.Ftjp5poh6g/DCT/loeffler_optimized.c:73:     v[7] = s4_4;
	.loc 1 73 10 is_stmt 0 view .LVU191
	str	r1, [r0, #28]	@ s4_4, MEM[(int32_t *)v_33(D) + 28B]
@ /tmp/tmp.Ftjp5poh6g/DCT/loeffler_optimized.c:61:     int32_t s4_5 = (int32_t) (((int64_t) s3_5 * R2) >> Q_SCALE);
	.loc 1 61 13 view .LVU192
	str	r4, [r0, #12]	@ tmp202, MEM[(int32_t *)v_33(D) + 12B]
	.loc 1 70 5 is_stmt 1 view .LVU193
	.loc 1 71 5 view .LVU194
@ /tmp/tmp.Ftjp5poh6g/DCT/loeffler_optimized.c:62:     int32_t s4_6 = (int32_t) (((int64_t) s3_6 * R2) >> Q_SCALE);
	.loc 1 62 13 is_stmt 0 view .LVU195
	str	r8, [r0, #20]	@ tmp208, MEM[(int32_t *)v_33(D) + 20B]
	.loc 1 72 5 is_stmt 1 view .LVU196
	.loc 1 73 5 view .LVU197
@ /tmp/tmp.Ftjp5poh6g/DCT/loeffler_optimized.c:74: }
	.loc 1 74 1 is_stmt 0 view .LVU198
	add	sp, sp, #44	@,,
	.cfi_def_cfa_offset 36
	@ sp needed	@
	pop	{r4, r5, r6, r7, r8, r9, r10, fp, pc}	@
	.loc 1 74 1 view .LVU199
	.cfi_endproc
.LFE2007:
	.size	loeffler_optimized, .-loeffler_optimized
.Letext0:
	.file 3 "/usr/include/bits/types.h"
	.file 4 "/usr/include/bits/stdint-intn.h"
	.section	.note.GNU-stack,"",%progbits
